; Function Attrs: mustprogress nounwind uwtable
define hidden void @_ZN13TemplateTable4lshlEv() local_unnamed_addr #0 align 2 {
  tail call void @_ZN13TemplateTable10transitionE8TosStateS0_(i32 noundef 4, i32 noundef 5) #8
  %1 = load ptr, ptr @_ZN13TemplateTable5_masmE, align 8
  %2 = load i8, ptr @PrintInterpreter, align 1
  %3 = trunc i8 %2 to i1
  br i1 %3, label %4, label %_ZN12Disassembler4hookI25InterpreterMacroAssemblerEEPT_PKciS3_.exit

4:                                                ; preds = %0
  tail call void @_ZN12Disassembler5_hookEPKciP14MacroAssembler(ptr noundef nonnull @.str, i32 noundef 1483, ptr noundef %1) #8
  br label %_ZN12Disassembler4hookI25InterpreterMacroAssemblerEEPT_PKciS3_.exit

_ZN12Disassembler4hookI25InterpreterMacroAssemblerEEPT_PKciS3_.exit: ; preds = %0, %4
  tail call void @_ZN9Assembler4movlE8RegisterS0_(ptr noundef nonnull align 8 dereferenceable(40) %1, i32 1, i32 0) #8
  %5 = load ptr, ptr @_ZN13TemplateTable5_masmE, align 8
  %6 = load i8, ptr @PrintInterpreter, align 1
  %7 = trunc i8 %6 to i1
  br i1 %7, label %8, label %_ZN12Disassembler4hookI25InterpreterMacroAssemblerEEPT_PKciS3_.exit4

8:                                                ; preds = %_ZN12Disassembler4hookI25InterpreterMacroAssemblerEEPT_PKciS3_.exit
  tail call void @_ZN12Disassembler5_hookEPKciP14MacroAssembler(ptr noundef nonnull @.str, i32 noundef 1485, ptr noundef %5) #8
  br label %_ZN12Disassembler4hookI25InterpreterMacroAssemblerEEPT_PKciS3_.exit4

_ZN12Disassembler4hookI25InterpreterMacroAssemblerEEPT_PKciS3_.exit4: ; preds = %_ZN12Disassembler4hookI25InterpreterMacroAssemblerEEPT_PKciS3_.exit, %8
  tail call void @_ZN25InterpreterMacroAssembler5pop_lE8Register(ptr noundef nonnull align 8 dereferenceable(48) %5, i32 0) #8
  %9 = load ptr, ptr @_ZN13TemplateTable5_masmE, align 8
  %10 = load i8, ptr @PrintInterpreter, align 1
  %11 = trunc i8 %10 to i1
  br i1 %11, label %12, label %_ZN12Disassembler4hookI25InterpreterMacroAssemblerEEPT_PKciS3_.exit5

12:                                               ; preds = %_ZN12Disassembler4hookI25InterpreterMacroAssemblerEEPT_PKciS3_.exit4
  tail call void @_ZN12Disassembler5_hookEPKciP14MacroAssembler(ptr noundef nonnull @.str, i32 noundef 1486, ptr noundef %9) #8
  br label %_ZN12Disassembler4hookI25InterpreterMacroAssemblerEEPT_PKciS3_.exit5

_ZN12Disassembler4hookI25InterpreterMacroAssemblerEEPT_PKciS3_.exit5: ; preds = %_ZN12Disassembler4hookI25InterpreterMacroAssemblerEEPT_PKciS3_.exit4, %12
  tail call void @_ZN9Assembler4shlqE8Register(ptr noundef nonnull align 8 dereferenceable(40) %9, i32 0) #8
  ret void
}